target datalayout = "e-m:e-p270:32:32-p271:32:32-p272:64:64-i64:64-i128:128-f80:128-n8:16:32:64-S128"
target triple = "x86_64-pc-linux-gnu"

@PyExc_RuntimeError = external global ptr, align 8
@.str.12 = private unnamed_addr constant [28 x i8] c"interpreter not initialized\00", align 1
@.str.13 = private unnamed_addr constant [9 x i8] c"__main__\00", align 1

; Function Attrs: nounwind uwtable
define dso_local ptr @PyUnstable_InterpreterState_GetMainModule(ptr noundef %0) #0 {
  %2 = alloca ptr, align 8
  %3 = alloca ptr, align 8
  %4 = alloca ptr, align 8
  %5 = alloca i32, align 4
  store ptr %0, ptr %3, align 8, !tbaa !204
  call void @llvm.lifetime.start.p0(i64 8, ptr %4) #10
  %6 = load ptr, ptr %3, align 8, !tbaa !204
  %7 = call ptr @_PyImport_GetModules(ptr noundef %6)
  store ptr %7, ptr %4, align 8, !tbaa !216
  %8 = load ptr, ptr %4, align 8, !tbaa !216
  %9 = icmp eq ptr %8, null
  br i1 %9, label %10, label %12

10:                                               ; preds = %1
  %11 = load ptr, ptr @PyExc_RuntimeError, align 8, !tbaa !216
  call void @PyErr_SetString(ptr noundef %11, ptr noundef @.str.12)
  store ptr null, ptr %2, align 8
  store i32 1, ptr %5, align 4
  br label %15

12:                                               ; preds = %1
  %13 = load ptr, ptr %4, align 8, !tbaa !216
  %14 = call ptr @PyMapping_GetItemString(ptr noundef %13, ptr noundef @.str.13)
  store ptr %14, ptr %2, align 8
  store i32 1, ptr %5, align 4
  br label %15

15:                                               ; preds = %12, %10
  call void @llvm.lifetime.end.p0(i64 8, ptr %4) #10
  %16 = load ptr, ptr %2, align 8
  ret ptr %16
}