; Function Attrs: nounwind uwtable
define dso_local ptr @PyUnstable_InterpreterState_GetMainModule(ptr noundef %0) local_unnamed_addr #1 {
  %2 = tail call ptr @_PyImport_GetModules(ptr noundef %0) #16
  %3 = icmp eq ptr %2, null
  br i1 %3, label %4, label %6

4:                                                ; preds = %1
  %5 = load ptr, ptr @PyExc_RuntimeError, align 8, !tbaa !211
  tail call void @PyErr_SetString(ptr noundef %5, ptr noundef nonnull @.str.12) #16
  br label %8

6:                                                ; preds = %1
  %7 = tail call ptr @PyMapping_GetItemString(ptr noundef nonnull %2, ptr noundef nonnull @.str.13) #16
  br label %8

8:                                                ; preds = %6, %4
  %.0 = phi ptr [ null, %4 ], [ %7, %6 ]
  ret ptr %.0
}